; Function Attrs: mustprogress uwtable
define void @_ZNK5folly7futures6detail22WithinInterruptHandlerclERKNS_17exception_wrapperE(ptr noundef nonnull readonly align 8 captures(none) dereferenceable(16) %0, ptr noundef nonnull readonly align 8 captures(none) dereferenceable(8) %1) local_unnamed_addr #1 align 2 personality ptr @__gxx_personality_v0 {
  %3 = alloca %"class.std::shared_ptr", align 8
  %4 = alloca %"class.folly::exception_wrapper", align 8
  call void @llvm.lifetime.start.p0(i64 16, ptr nonnull %3) #23
  tail call void @llvm.experimental.noalias.scope.decl(metadata !7)
  %5 = getelementptr inbounds nuw i8, ptr %3, i64 8
  %6 = getelementptr inbounds nuw i8, ptr %0, i64 8
  %7 = load ptr, ptr %6, align 8, !tbaa !10, !noalias !7
  store ptr %7, ptr %5, align 8, !tbaa !16, !alias.scope !7
  %.not.i.i.i.i = icmp eq ptr %7, null
  br i1 %.not.i.i.i.i, label %_ZNSt12__shared_ptrIN5folly7futures6detail8CoreBaseELN9__gnu_cxx12_Lock_policyE2EED2Ev.exit, label %8

8:                                                ; preds = %2
  %9 = getelementptr inbounds nuw i8, ptr %7, i64 8
  %10 = load atomic i32, ptr %9 monotonic, align 8, !noalias !7
  br label %11

11:                                               ; preds = %12, %8
  %.06.i.i.i.i.i = phi i32 [ %10, %8 ], [ %16, %12 ]
  %.not.not.not.i.not.i.i.i.i = icmp eq i32 %.06.i.i.i.i.i, 0
  br i1 %.not.not.not.i.not.i.i.i.i, label %_ZNSt12__shared_ptrIN5folly7futures6detail8CoreBaseELN9__gnu_cxx12_Lock_policyE2EED2Ev.exit, label %12

12:                                               ; preds = %11
  %13 = add nsw i32 %.06.i.i.i.i.i, 1
  %14 = cmpxchg weak ptr %9, i32 %.06.i.i.i.i.i, i32 %13 acq_rel monotonic, align 8, !noalias !7
  %15 = extractvalue { i32, i1 } %14, 1
  %16 = extractvalue { i32, i1 } %14, 0
  br i1 %15, label %_ZNSt14__shared_countILN9__gnu_cxx12_Lock_policyE2EEC2ERKSt12__weak_countILS1_2EESt9nothrow_t.exit.i.i.i, label %11, !llvm.loop !18

_ZNSt14__shared_countILN9__gnu_cxx12_Lock_policyE2EEC2ERKSt12__weak_countILS1_2EESt9nothrow_t.exit.i.i.i: ; preds = %12
  %.pr.i.i.i = load ptr, ptr %5, align 8, !tbaa !16, !alias.scope !7
  %.not.i3.i.i.i = icmp eq ptr %.pr.i.i.i, null
  br i1 %.not.i3.i.i.i, label %_ZNSt12__shared_ptrIN5folly7futures6detail8CoreBaseELN9__gnu_cxx12_Lock_policyE2EED2Ev.exit, label %_ZNKSt14__shared_countILN9__gnu_cxx12_Lock_policyE2EE16_M_get_use_countEv.exit.i.i.i

_ZNKSt14__shared_countILN9__gnu_cxx12_Lock_policyE2EE16_M_get_use_countEv.exit.i.i.i: ; preds = %_ZNSt14__shared_countILN9__gnu_cxx12_Lock_policyE2EEC2ERKSt12__weak_countILS1_2EESt9nothrow_t.exit.i.i.i
  %17 = getelementptr inbounds nuw i8, ptr %.pr.i.i.i, i64 8
  %18 = load atomic i32, ptr %17 monotonic, align 8, !noalias !7
  %.fr.i.i.i = freeze i32 %18
  %.not.i.i.i = icmp eq i32 %.fr.i.i.i, 0
  %19 = load ptr, ptr %0, align 8, !noalias !7
  br i1 %.not.i.i.i, label %_ZN5folly17exception_wrapperD2Ev.exit, label %_ZNKSt8weak_ptrIN5folly7futures6detail8CoreBaseEE4lockEv.exit

_ZNKSt8weak_ptrIN5folly7futures6detail8CoreBaseEE4lockEv.exit: ; preds = %_ZNKSt14__shared_countILN9__gnu_cxx12_Lock_policyE2EE16_M_get_use_countEv.exit.i.i.i
  store ptr %19, ptr %3, align 8, !tbaa !20, !alias.scope !7
  %.not = icmp eq ptr %19, null
  br i1 %.not, label %_ZN5folly17exception_wrapperD2Ev.exit.thread, label %20

20:                                               ; preds = %_ZNKSt8weak_ptrIN5folly7futures6detail8CoreBaseEE4lockEv.exit
  %21 = load ptr, ptr %1, align 8, !tbaa !23
  store ptr %21, ptr %4, align 8, !tbaa !23
  %.not.i.i = icmp eq ptr %21, null
  br i1 %.not.i.i, label %_ZN5folly17exception_wrapperC2ERKS0_.exit, label %22

22:                                               ; preds = %20
  call void @_ZNSt15__exception_ptr13exception_ptr9_M_addrefEv(ptr noundef nonnull align 8 dereferenceable(8) %4) #23
  br label %_ZN5folly17exception_wrapperC2ERKS0_.exit

_ZN5folly17exception_wrapperC2ERKS0_.exit:        ; preds = %20, %22
  invoke void @_ZN5folly7futures6detail8CoreBase5raiseENS_17exception_wrapperE(ptr noundef nonnull align 16 dereferenceable(136) %19, ptr noundef nonnull %4)
          to label %23 unwind label %26

23:                                               ; preds = %_ZN5folly17exception_wrapperC2ERKS0_.exit
  %24 = load ptr, ptr %4, align 8, !tbaa !23
  %.not.i.i3 = icmp eq ptr %24, null
  br i1 %.not.i.i3, label %_ZN5folly17exception_wrapperD2Ev.exit.thread, label %25

25:                                               ; preds = %23
  call void @_ZNSt15__exception_ptr13exception_ptr10_M_releaseEv(ptr noundef nonnull align 8 dereferenceable(8) %4) #23
  br label %_ZN5folly17exception_wrapperD2Ev.exit.thread

26:                                               ; preds = %_ZN5folly17exception_wrapperC2ERKS0_.exit
  %27 = landingpad { ptr, i32 }
          cleanup
  %28 = load ptr, ptr %4, align 8, !tbaa !23
  %.not.i.i4 = icmp eq ptr %28, null
  br i1 %.not.i.i4, label %_ZN5folly17exception_wrapperD2Ev.exit5, label %29

29:                                               ; preds = %26
  call void @_ZNSt15__exception_ptr13exception_ptr10_M_releaseEv(ptr noundef nonnull align 8 dereferenceable(8) %4) #23
  br label %_ZN5folly17exception_wrapperD2Ev.exit5

_ZN5folly17exception_wrapperD2Ev.exit5:           ; preds = %26, %29
  call void @_ZNSt12__shared_ptrIN5folly7futures6detail8CoreBaseELN9__gnu_cxx12_Lock_policyE2EED2Ev(ptr noundef nonnull align 8 dereferenceable(16) %3) #23
  call void @llvm.lifetime.end.p0(i64 16, ptr nonnull %3) #23
  resume { ptr, i32 } %27

_ZN5folly17exception_wrapperD2Ev.exit:            ; preds = %_ZNKSt14__shared_countILN9__gnu_cxx12_Lock_policyE2EE16_M_get_use_countEv.exit.i.i.i
  store ptr null, ptr %3, align 8, !tbaa !20, !alias.scope !7
  br label %_ZN5folly17exception_wrapperD2Ev.exit.thread

_ZN5folly17exception_wrapperD2Ev.exit.thread:     ; preds = %_ZNKSt8weak_ptrIN5folly7futures6detail8CoreBaseEE4lockEv.exit, %23, %25, %_ZN5folly17exception_wrapperD2Ev.exit
  %30 = getelementptr inbounds nuw i8, ptr %.pr.i.i.i, i64 8
  %31 = load atomic i64, ptr %30 acquire, align 8
  %32 = icmp eq i64 %31, 4294967297
  %33 = trunc i64 %31 to i32
  br i1 %32, label %34, label %42

34:                                               ; preds = %_ZN5folly17exception_wrapperD2Ev.exit.thread
  store i32 0, ptr %30, align 8, !tbaa !25
  %35 = getelementptr inbounds nuw i8, ptr %.pr.i.i.i, i64 12
  store i32 0, ptr %35, align 4, !tbaa !28
  %36 = load ptr, ptr %.pr.i.i.i, align 8, !tbaa !29
  %37 = getelementptr inbounds nuw i8, ptr %36, i64 16
  %38 = load ptr, ptr %37, align 8
  call void %38(ptr noundef nonnull align 8 dereferenceable(16) %.pr.i.i.i) #23
  %39 = load ptr, ptr %.pr.i.i.i, align 8, !tbaa !29
  %40 = getelementptr inbounds nuw i8, ptr %39, i64 24
  %41 = load ptr, ptr %40, align 8
  call void %41(ptr noundef nonnull align 8 dereferenceable(16) %.pr.i.i.i) #23
  br label %_ZNSt12__shared_ptrIN5folly7futures6detail8CoreBaseELN9__gnu_cxx12_Lock_policyE2EED2Ev.exit

42:                                               ; preds = %_ZN5folly17exception_wrapperD2Ev.exit.thread
  %43 = load i8, ptr @__libc_single_threaded, align 1, !tbaa !31
  %.not.i.i.i7 = icmp eq i8 %43, 0
  br i1 %.not.i.i.i7, label %46, label %44

44:                                               ; preds = %42
  %45 = add nsw i32 %33, -1
  store i32 %45, ptr %30, align 4, !tbaa !32
  br label %_ZN9__gnu_cxx27__exchange_and_add_dispatchEPii.exit.i.i.i

46:                                               ; preds = %42
  %47 = atomicrmw volatile add ptr %30, i32 -1 acq_rel, align 4
  br label %_ZN9__gnu_cxx27__exchange_and_add_dispatchEPii.exit.i.i.i

_ZN9__gnu_cxx27__exchange_and_add_dispatchEPii.exit.i.i.i: ; preds = %46, %44
  %.0.i.i.i.i = phi i32 [ %33, %44 ], [ %47, %46 ]
  %48 = icmp eq i32 %.0.i.i.i.i, 1
  br i1 %48, label %49, label %_ZNSt12__shared_ptrIN5folly7futures6detail8CoreBaseELN9__gnu_cxx12_Lock_policyE2EED2Ev.exit, !prof !33

49:                                               ; preds = %_ZN9__gnu_cxx27__exchange_and_add_dispatchEPii.exit.i.i.i
  call void @_ZNSt16_Sp_counted_baseILN9__gnu_cxx12_Lock_policyE2EE24_M_release_last_use_coldEv(ptr noundef nonnull align 8 dereferenceable(16) %.pr.i.i.i) #23
  br label %_ZNSt12__shared_ptrIN5folly7futures6detail8CoreBaseELN9__gnu_cxx12_Lock_policyE2EED2Ev.exit

_ZNSt12__shared_ptrIN5folly7futures6detail8CoreBaseELN9__gnu_cxx12_Lock_policyE2EED2Ev.exit: ; preds = %11, %_ZNSt14__shared_countILN9__gnu_cxx12_Lock_policyE2EEC2ERKSt12__weak_countILS1_2EESt9nothrow_t.exit.i.i.i, %2, %34, %_ZN9__gnu_cxx27__exchange_and_add_dispatchEPii.exit.i.i.i, %49
  call void @llvm.lifetime.end.p0(i64 16, ptr nonnull %3) #23
  ret void
}